#include <math.h>
#include <stdio.h>
#include <stdlib.h>
#include <string.h>
#include <iostream>
using namespace std;

int fenjie(int x,int y){//x????? y??????????
	int i,s=0;//s??????
	if(x==y)return 1;
	for(i=y;i<x;i++)
		if(x%i==0)s+=fenjie(x/i,i);
	if(i==x)s++;
	return s;
}
int main(){
	int n,i;//n???????
	cin>>n;
	for(;n>0;n--){
		cin>>i;
		cout<<fenjie(i,2)<<endl;
	}
	return 0;
}